target datalayout = "e-m:e-p270:32:32-p271:32:32-p272:64:64-i64:64-i128:128-f80:128-n8:16:32:64-S128"
target triple = "x86_64-pc-linux-gnu"

%struct.buffered_s = type { ptr, ptr, ptr, i64, i64 }

; Function Attrs: nounwind uwtable
define internal void @mi_buffered_flush(ptr noundef %0) #0 {
  %2 = alloca ptr, align 8
  store ptr %0, ptr %2, align 8, !tbaa !55
  %3 = load ptr, ptr %2, align 8, !tbaa !55
  %4 = getelementptr inbounds nuw %struct.buffered_s, ptr %3, i32 0, i32 2
  %5 = load ptr, ptr %4, align 8, !tbaa !37
  %6 = load ptr, ptr %2, align 8, !tbaa !55
  %7 = getelementptr inbounds nuw %struct.buffered_s, ptr %6, i32 0, i32 3
  %8 = load i64, ptr %7, align 8, !tbaa !38
  %9 = getelementptr inbounds nuw i8, ptr %5, i64 %8
  store i8 0, ptr %9, align 1, !tbaa !57
  %10 = load ptr, ptr %2, align 8, !tbaa !55
  %11 = getelementptr inbounds nuw %struct.buffered_s, ptr %10, i32 0, i32 0
  %12 = load ptr, ptr %11, align 8, !tbaa !33
  %13 = load ptr, ptr %2, align 8, !tbaa !55
  %14 = getelementptr inbounds nuw %struct.buffered_s, ptr %13, i32 0, i32 1
  %15 = load ptr, ptr %14, align 8, !tbaa !36
  %16 = load ptr, ptr %2, align 8, !tbaa !55
  %17 = getelementptr inbounds nuw %struct.buffered_s, ptr %16, i32 0, i32 2
  %18 = load ptr, ptr %17, align 8, !tbaa !37
  call void @_mi_fputs(ptr noundef %12, ptr noundef %15, ptr noundef null, ptr noundef %18) #6
  %19 = load ptr, ptr %2, align 8, !tbaa !55
  %20 = getelementptr inbounds nuw %struct.buffered_s, ptr %19, i32 0, i32 3
  store i64 0, ptr %20, align 8, !tbaa !38
  ret void
}

; Function Attrs: nounwind uwtable
define internal void @mi_buffered_out(ptr noundef %0, ptr noundef %1) #0 {
  %3 = alloca ptr, align 8
  %4 = alloca ptr, align 8
  %5 = alloca ptr, align 8
  %6 = alloca i32, align 4
  %7 = alloca ptr, align 8
  %8 = alloca i8, align 1
  store ptr %0, ptr %3, align 8, !tbaa !54
  store ptr %1, ptr %4, align 8, !tbaa !13
  call void @llvm.lifetime.start.p0(i64 8, ptr %5) #7
  %9 = load ptr, ptr %4, align 8, !tbaa !13
  store ptr %9, ptr %5, align 8, !tbaa !55
  %10 = load ptr, ptr %3, align 8, !tbaa !54
  %11 = icmp eq ptr %10, null
  br i1 %11, label %15, label %12

12:                                               ; preds = %2
  %13 = load ptr, ptr %5, align 8, !tbaa !55
  %14 = icmp eq ptr %13, null
  br i1 %14, label %15, label %16

15:                                               ; preds = %12, %2
  store i32 1, ptr %6, align 4
  br label %56

16:                                               ; preds = %12
  call void @llvm.lifetime.start.p0(i64 8, ptr %7) #7
  %17 = load ptr, ptr %3, align 8, !tbaa !54
  store ptr %17, ptr %7, align 8, !tbaa !54
  br label %18

18:                                               ; preds = %52, %16
  %19 = load ptr, ptr %7, align 8, !tbaa !54
  %20 = load i8, ptr %19, align 1, !tbaa !57
  %21 = sext i8 %20 to i32
  %22 = icmp ne i32 %21, 0
  br i1 %22, label %24, label %23

23:                                               ; preds = %18
  store i32 2, ptr %6, align 4
  call void @llvm.lifetime.end.p0(i64 8, ptr %7) #7
  br label %55

24:                                               ; preds = %18
  call void @llvm.lifetime.start.p0(i64 1, ptr %8) #7
  %25 = load ptr, ptr %7, align 8, !tbaa !54
  %26 = load i8, ptr %25, align 1, !tbaa !57
  store i8 %26, ptr %8, align 1, !tbaa !57
  %27 = load ptr, ptr %5, align 8, !tbaa !55
  %28 = getelementptr inbounds nuw %struct.buffered_s, ptr %27, i32 0, i32 3
  %29 = load i64, ptr %28, align 8, !tbaa !38
  %30 = load ptr, ptr %5, align 8, !tbaa !55
  %31 = getelementptr inbounds nuw %struct.buffered_s, ptr %30, i32 0, i32 4
  %32 = load i64, ptr %31, align 8, !tbaa !39
  %33 = icmp uge i64 %29, %32
  br i1 %33, label %34, label %36

34:                                               ; preds = %24
  %35 = load ptr, ptr %5, align 8, !tbaa !55
  call void @mi_buffered_flush(ptr noundef %35) #6
  br label %36

36:                                               ; preds = %34, %24
  %37 = load i8, ptr %8, align 1, !tbaa !57
  %38 = load ptr, ptr %5, align 8, !tbaa !55
  %39 = getelementptr inbounds nuw %struct.buffered_s, ptr %38, i32 0, i32 2
  %40 = load ptr, ptr %39, align 8, !tbaa !37
  %41 = load ptr, ptr %5, align 8, !tbaa !55
  %42 = getelementptr inbounds nuw %struct.buffered_s, ptr %41, i32 0, i32 3
  %43 = load i64, ptr %42, align 8, !tbaa !38
  %44 = add i64 %43, 1
  store i64 %44, ptr %42, align 8, !tbaa !38
  %45 = getelementptr inbounds nuw i8, ptr %40, i64 %43
  store i8 %37, ptr %45, align 1, !tbaa !57
  %46 = load i8, ptr %8, align 1, !tbaa !57
  %47 = sext i8 %46 to i32
  %48 = icmp eq i32 %47, 10
  br i1 %48, label %49, label %51

49:                                               ; preds = %36
  %50 = load ptr, ptr %5, align 8, !tbaa !55
  call void @mi_buffered_flush(ptr noundef %50) #6
  br label %51

51:                                               ; preds = %49, %36
  call void @llvm.lifetime.end.p0(i64 1, ptr %8) #7
  br label %52

52:                                               ; preds = %51
  %53 = load ptr, ptr %7, align 8, !tbaa !54
  %54 = getelementptr inbounds nuw i8, ptr %53, i32 1
  store ptr %54, ptr %7, align 8, !tbaa !54
  br label %18, !llvm.loop !58

55:                                               ; preds = %23
  store i32 0, ptr %6, align 4
  br label %56

56:                                               ; preds = %55, %15
  call void @llvm.lifetime.end.p0(i64 8, ptr %5) #7
  %57 = load i32, ptr %6, align 4
  switch i32 %57, label %59 [
    i32 0, label %58
    i32 1, label %58
  ]

58:                                               ; preds = %56, %56
  ret void

59:                                               ; preds = %56
  unreachable
}