; Function Attrs: nounwind uwtable
define internal void @mi_buffered_out(ptr noundef readonly captures(address_is_null) %0, ptr noundef captures(address_is_null) %1) #2 {
  %3 = icmp eq ptr %0, null
  %4 = icmp eq ptr %1, null
  %or.cond = or i1 %3, %4
  br i1 %or.cond, label %.loopexit, label %.preheader

.preheader:                                       ; preds = %2
  %5 = load i8, ptr %0, align 1, !tbaa !41
  %.not19 = icmp eq i8 %5, 0
  br i1 %.not19, label %.loopexit, label %.lr.ph

.lr.ph:                                           ; preds = %.preheader
  %6 = getelementptr inbounds nuw i8, ptr %1, i64 24
  %7 = getelementptr inbounds nuw i8, ptr %1, i64 32
  %8 = getelementptr inbounds nuw i8, ptr %1, i64 16
  %9 = getelementptr inbounds nuw i8, ptr %1, i64 8
  br label %10

10:                                               ; preds = %.lr.ph, %33
  %11 = phi i8 [ %5, %.lr.ph ], [ %35, %33 ]
  %.020 = phi ptr [ %0, %.lr.ph ], [ %34, %33 ]
  %12 = load i64, ptr %6, align 8, !tbaa !42
  %13 = load i64, ptr %7, align 8, !tbaa !30
  %.not18 = icmp ult i64 %12, %13
  br i1 %.not18, label %20, label %14

14:                                               ; preds = %10
  %15 = load ptr, ptr %8, align 8, !tbaa !31
  %16 = getelementptr inbounds nuw i8, ptr %15, i64 %12
  store i8 0, ptr %16, align 1, !tbaa !41
  %17 = load ptr, ptr %1, align 8, !tbaa !26
  %18 = load ptr, ptr %9, align 8, !tbaa !29
  %19 = load ptr, ptr %8, align 8, !tbaa !31
  tail call void @_mi_fputs(ptr noundef %17, ptr noundef %18, ptr noundef null, ptr noundef %19) #8
  br label %20

20:                                               ; preds = %14, %10
  %21 = phi i64 [ 0, %14 ], [ %12, %10 ]
  %22 = load ptr, ptr %8, align 8, !tbaa !31
  %23 = add nuw i64 %21, 1
  store i64 %23, ptr %6, align 8, !tbaa !42
  %24 = getelementptr inbounds nuw i8, ptr %22, i64 %21
  store i8 %11, ptr %24, align 1, !tbaa !41
  %25 = icmp eq i8 %11, 10
  br i1 %25, label %26, label %33

26:                                               ; preds = %20
  %27 = load ptr, ptr %8, align 8, !tbaa !31
  %28 = load i64, ptr %6, align 8, !tbaa !42
  %29 = getelementptr inbounds nuw i8, ptr %27, i64 %28
  store i8 0, ptr %29, align 1, !tbaa !41
  %30 = load ptr, ptr %1, align 8, !tbaa !26
  %31 = load ptr, ptr %9, align 8, !tbaa !29
  %32 = load ptr, ptr %8, align 8, !tbaa !31
  tail call void @_mi_fputs(ptr noundef %30, ptr noundef %31, ptr noundef null, ptr noundef %32) #8
  store i64 0, ptr %6, align 8, !tbaa !42
  br label %33

33:                                               ; preds = %26, %20
  %34 = getelementptr inbounds nuw i8, ptr %.020, i64 1
  %35 = load i8, ptr %34, align 1, !tbaa !41
  %.not = icmp eq i8 %35, 0
  br i1 %.not, label %.loopexit, label %10, !llvm.loop !43

.loopexit:                                        ; preds = %33, %.preheader, %2
  ret void
}